; Function Attrs: mustprogress nounwind uwtable
define dso_local void @_ZN4llvm16RegisterBankInfo14OperandsMapperC2ERNS_12MachineInstrERKNS0_18InstructionMappingERNS_19MachineRegisterInfoE(ptr noundef nonnull align 8 dereferenceable(120) %0, ptr noundef nonnull align 8 dereferenceable(70) %1, ptr noundef nonnull align 8 dereferenceable(20) %2, ptr noundef nonnull align 8 dereferenceable(512) %3) unnamed_addr #2 align 2 {
  %5 = getelementptr inbounds i8, ptr %0, i64 16
  tail call void @_ZN4llvm15SmallVectorBaseIjEC2EPvm(ptr noundef nonnull align 8 dereferenceable(16) %0, ptr noundef nonnull %5, i64 noundef 8) #14
  %6 = getelementptr inbounds nuw i8, ptr %0, i64 48
  %7 = getelementptr inbounds i8, ptr %0, i64 64
  tail call void @_ZN4llvm15SmallVectorBaseIjEC2EPvm(ptr noundef nonnull align 8 dereferenceable(16) %6, ptr noundef nonnull %7, i64 noundef 8) #14
  %8 = getelementptr inbounds nuw i8, ptr %0, i64 96
  store ptr %3, ptr %8, align 8
  %9 = getelementptr inbounds nuw i8, ptr %0, i64 104
  store ptr %1, ptr %9, align 8
  %10 = getelementptr inbounds nuw i8, ptr %0, i64 112
  store ptr %2, ptr %10, align 8
  %11 = getelementptr inbounds nuw i8, ptr %2, i64 16
  %12 = load i32, ptr %11, align 8
  %13 = zext i32 %12 to i64
  tail call void @_ZN4llvm15SmallVectorImplIiE6resizeEmi(ptr noundef nonnull align 8 dereferenceable(16) %0, i64 noundef %13, i32 noundef -1)
  ret void
}